target datalayout = "e-m:e-p270:32:32-p271:32:32-p272:64:64-i64:64-i128:128-f80:128-n8:16:32:64-S128"
target triple = "x86_64-unknown-linux-gnu"

%struct.UStringSearch = type { ptr, %struct.UPattern, ptr, ptr, ptr, ptr, ptr, i8, i32, i32, i32, i8 }
%struct.UPattern = type { ptr, i32, i32, ptr, [256 x i32], i32, ptr, [256 x i64], i8, i8 }
%struct.USearch = type { ptr, i32, i8, i8, i16, ptr, ptr, i32, i32, i8, i8 }

; Function Attrs: mustprogress nounwind uwtable
define internal noundef signext i8 @_ZL9U_SUCCESS10UErrorCode(i32 noundef %code) #1 {
entry:
  %code.addr = alloca i32, align 4
  store i32 %code, ptr %code.addr, align 4
  %0 = load i32, ptr %code.addr, align 4
  %cmp = icmp sle i32 %0, 0
  %conv = zext i1 %cmp to i8
  ret i8 %conv
}

; Function Attrs: mustprogress uwtable
define void @usearch_setText_75(ptr noundef %strsrch, ptr noundef %text, i32 noundef %textlength, ptr noundef %status) #0 {
entry:
  %strsrch.addr = alloca ptr, align 8
  %text.addr = alloca ptr, align 8
  %textlength.addr = alloca i32, align 4
  %status.addr = alloca ptr, align 8
  store ptr %strsrch, ptr %strsrch.addr, align 8
  store ptr %text, ptr %text.addr, align 8
  store i32 %textlength, ptr %textlength.addr, align 4
  store ptr %status, ptr %status.addr, align 8
  %0 = load ptr, ptr %status.addr, align 8
  %1 = load i32, ptr %0, align 4
  %call = call noundef signext i8 @_ZL9U_SUCCESS10UErrorCode(i32 noundef %1)
  %tobool = icmp ne i8 %call, 0
  br i1 %tobool, label %if.then, label %if.end28

if.then:                                          ; preds = %entry
  %2 = load ptr, ptr %strsrch.addr, align 8
  %cmp = icmp eq ptr %2, null
  br i1 %cmp, label %if.then6, label %lor.lhs.false

lor.lhs.false:                                    ; preds = %if.then
  %3 = load ptr, ptr %text.addr, align 8
  %cmp1 = icmp eq ptr %3, null
  br i1 %cmp1, label %if.then6, label %lor.lhs.false2

lor.lhs.false2:                                   ; preds = %lor.lhs.false
  %4 = load i32, ptr %textlength.addr, align 4
  %cmp3 = icmp slt i32 %4, -1
  br i1 %cmp3, label %if.then6, label %lor.lhs.false4

lor.lhs.false4:                                   ; preds = %lor.lhs.false2
  %5 = load i32, ptr %textlength.addr, align 4
  %cmp5 = icmp eq i32 %5, 0
  br i1 %cmp5, label %if.then6, label %if.else

if.then6:                                         ; preds = %lor.lhs.false4, %lor.lhs.false2, %lor.lhs.false, %if.then
  %6 = load ptr, ptr %status.addr, align 8
  store i32 1, ptr %6, align 4
  br label %if.end27

if.else:                                          ; preds = %lor.lhs.false4
  %7 = load i32, ptr %textlength.addr, align 4
  %cmp7 = icmp eq i32 %7, -1
  br i1 %cmp7, label %if.then8, label %if.end

if.then8:                                         ; preds = %if.else
  %8 = load ptr, ptr %text.addr, align 8
  %call9 = call i32 @u_strlen_75(ptr noundef %8)
  store i32 %call9, ptr %textlength.addr, align 4
  br label %if.end

if.end:                                           ; preds = %if.then8, %if.else
  %9 = load ptr, ptr %text.addr, align 8
  %10 = load ptr, ptr %strsrch.addr, align 8
  %search = getelementptr inbounds %struct.UStringSearch, ptr %10, i32 0, i32 0
  %11 = load ptr, ptr %search, align 8
  %text10 = getelementptr inbounds %struct.USearch, ptr %11, i32 0, i32 0
  store ptr %9, ptr %text10, align 8
  %12 = load i32, ptr %textlength.addr, align 4
  %13 = load ptr, ptr %strsrch.addr, align 8
  %search11 = getelementptr inbounds %struct.UStringSearch, ptr %13, i32 0, i32 0
  %14 = load ptr, ptr %search11, align 8
  %textLength = getelementptr inbounds %struct.USearch, ptr %14, i32 0, i32 1
  store i32 %12, ptr %textLength, align 8
  %15 = load ptr, ptr %strsrch.addr, align 8
  %textIter = getelementptr inbounds %struct.UStringSearch, ptr %15, i32 0, i32 4
  %16 = load ptr, ptr %textIter, align 8
  %17 = load ptr, ptr %text.addr, align 8
  %18 = load i32, ptr %textlength.addr, align 4
  %19 = load ptr, ptr %status.addr, align 8
  call void @ucol_setText_75(ptr noundef %16, ptr noundef %17, i32 noundef %18, ptr noundef %19)
  %20 = load ptr, ptr %strsrch.addr, align 8
  %search12 = getelementptr inbounds %struct.UStringSearch, ptr %20, i32 0, i32 0
  %21 = load ptr, ptr %search12, align 8
  %matchedIndex = getelementptr inbounds %struct.USearch, ptr %21, i32 0, i32 7
  store i32 -1, ptr %matchedIndex, align 8
  %22 = load ptr, ptr %strsrch.addr, align 8
  %search13 = getelementptr inbounds %struct.UStringSearch, ptr %22, i32 0, i32 0
  %23 = load ptr, ptr %search13, align 8
  %matchedLength = getelementptr inbounds %struct.USearch, ptr %23, i32 0, i32 8
  store i32 0, ptr %matchedLength, align 4
  %24 = load ptr, ptr %strsrch.addr, align 8
  %search14 = getelementptr inbounds %struct.UStringSearch, ptr %24, i32 0, i32 0
  %25 = load ptr, ptr %search14, align 8
  %reset = getelementptr inbounds %struct.USearch, ptr %25, i32 0, i32 10
  store i8 1, ptr %reset, align 1
  %26 = load ptr, ptr %strsrch.addr, align 8
  %search15 = getelementptr inbounds %struct.UStringSearch, ptr %26, i32 0, i32 0
  %27 = load ptr, ptr %search15, align 8
  %breakIter = getelementptr inbounds %struct.USearch, ptr %27, i32 0, i32 6
  %28 = load ptr, ptr %breakIter, align 8
  %cmp16 = icmp ne ptr %28, null
  br i1 %cmp16, label %if.then17, label %if.end20

if.then17:                                        ; preds = %if.end
  %29 = load ptr, ptr %strsrch.addr, align 8
  %search18 = getelementptr inbounds %struct.UStringSearch, ptr %29, i32 0, i32 0
  %30 = load ptr, ptr %search18, align 8
  %breakIter19 = getelementptr inbounds %struct.USearch, ptr %30, i32 0, i32 6
  %31 = load ptr, ptr %breakIter19, align 8
  %32 = load ptr, ptr %text.addr, align 8
  %33 = load i32, ptr %textlength.addr, align 4
  %34 = load ptr, ptr %status.addr, align 8
  call void @ubrk_setText_75(ptr noundef %31, ptr noundef %32, i32 noundef %33, ptr noundef %34)
  br label %if.end20

if.end20:                                         ; preds = %if.then17, %if.end
  %35 = load ptr, ptr %strsrch.addr, align 8
  %search21 = getelementptr inbounds %struct.UStringSearch, ptr %35, i32 0, i32 0
  %36 = load ptr, ptr %search21, align 8
  %internalBreakIter = getelementptr inbounds %struct.USearch, ptr %36, i32 0, i32 5
  %37 = load ptr, ptr %internalBreakIter, align 8
  %cmp22 = icmp ne ptr %37, null
  br i1 %cmp22, label %if.then23, label %if.end26

if.then23:                                        ; preds = %if.end20
  %38 = load ptr, ptr %strsrch.addr, align 8
  %search24 = getelementptr inbounds %struct.UStringSearch, ptr %38, i32 0, i32 0
  %39 = load ptr, ptr %search24, align 8
  %internalBreakIter25 = getelementptr inbounds %struct.USearch, ptr %39, i32 0, i32 5
  %40 = load ptr, ptr %internalBreakIter25, align 8
  %41 = load ptr, ptr %text.addr, align 8
  %42 = load i32, ptr %textlength.addr, align 4
  %43 = load ptr, ptr %status.addr, align 8
  call void @ubrk_setText_75(ptr noundef %40, ptr noundef %41, i32 noundef %42, ptr noundef %43)
  br label %if.end26

if.end26:                                         ; preds = %if.then23, %if.end20
  br label %if.end27

if.end27:                                         ; preds = %if.end26, %if.then6
  br label %if.end28

if.end28:                                         ; preds = %if.end27, %entry
  ret void
}