; Function Attrs: mustprogress uwtable
define void @usearch_setText_75(ptr noundef readonly %strsrch, ptr noundef %text, i32 noundef %textlength, ptr noundef %status) local_unnamed_addr #0 {
entry:
  %0 = load i32, ptr %status, align 4
  %cmp.i = icmp sgt i32 %0, 0
  br i1 %cmp.i, label %if.end28, label %if.then

if.then:                                          ; preds = %entry
  %cmp = icmp eq ptr %strsrch, null
  %cmp1 = icmp eq ptr %text, null
  %or.cond = or i1 %cmp, %cmp1
  %cmp3 = icmp slt i32 %textlength, -1
  %or.cond1 = or i1 %or.cond, %cmp3
  %cmp5 = icmp eq i32 %textlength, 0
  %or.cond2 = or i1 %cmp5, %or.cond1
  br i1 %or.cond2, label %if.then6, label %if.else

if.then6:                                         ; preds = %if.then
  store i32 1, ptr %status, align 4
  br label %if.end28

if.else:                                          ; preds = %if.then
  %cmp7 = icmp eq i32 %textlength, -1
  br i1 %cmp7, label %if.then8, label %if.end

if.then8:                                         ; preds = %if.else
  %call9 = tail call i32 @u_strlen_75(ptr noundef nonnull %text)
  br label %if.end

if.end:                                           ; preds = %if.then8, %if.else
  %textlength.addr.0 = phi i32 [ %call9, %if.then8 ], [ %textlength, %if.else ]
  %1 = load ptr, ptr %strsrch, align 8
  store ptr %text, ptr %1, align 8
  %2 = load ptr, ptr %strsrch, align 8
  %textLength = getelementptr inbounds i8, ptr %2, i64 8
  store i32 %textlength.addr.0, ptr %textLength, align 8
  %textIter = getelementptr inbounds i8, ptr %strsrch, i64 3144
  %3 = load ptr, ptr %textIter, align 8
  tail call void @ucol_setText_75(ptr noundef %3, ptr noundef nonnull %text, i32 noundef %textlength.addr.0, ptr noundef nonnull %status)
  %4 = load ptr, ptr %strsrch, align 8
  %matchedIndex = getelementptr inbounds i8, ptr %4, i64 32
  store i32 -1, ptr %matchedIndex, align 8
  %5 = load ptr, ptr %strsrch, align 8
  %matchedLength = getelementptr inbounds i8, ptr %5, i64 36
  store i32 0, ptr %matchedLength, align 4
  %6 = load ptr, ptr %strsrch, align 8
  %reset = getelementptr inbounds i8, ptr %6, i64 41
  store i8 1, ptr %reset, align 1
  %7 = load ptr, ptr %strsrch, align 8
  %breakIter = getelementptr inbounds i8, ptr %7, i64 24
  %8 = load ptr, ptr %breakIter, align 8
  %cmp16.not = icmp eq ptr %8, null
  br i1 %cmp16.not, label %if.end20, label %if.then17

if.then17:                                        ; preds = %if.end
  tail call void @ubrk_setText_75(ptr noundef nonnull %8, ptr noundef nonnull %text, i32 noundef %textlength.addr.0, ptr noundef nonnull %status)
  %.pre = load ptr, ptr %strsrch, align 8
  br label %if.end20

if.end20:                                         ; preds = %if.then17, %if.end
  %9 = phi ptr [ %.pre, %if.then17 ], [ %7, %if.end ]
  %internalBreakIter = getelementptr inbounds i8, ptr %9, i64 16
  %10 = load ptr, ptr %internalBreakIter, align 8
  %cmp22.not = icmp eq ptr %10, null
  br i1 %cmp22.not, label %if.end28, label %if.then23

if.then23:                                        ; preds = %if.end20
  tail call void @ubrk_setText_75(ptr noundef nonnull %10, ptr noundef nonnull %text, i32 noundef %textlength.addr.0, ptr noundef nonnull %status)
  br label %if.end28

if.end28:                                         ; preds = %if.then6, %if.then23, %if.end20, %entry
  ret void
}